; Function Attrs: mustprogress uwtable
define dso_local void @_ZN19DFSProgramGeneratorC2EiPPcm(ptr noundef nonnull align 8 dereferenceable(48) %0, i32 noundef %1, ptr noundef %2, i64 noundef %3) unnamed_addr #3 align 2 {
  tail call void @_ZN19AbsProgramGeneratorC2Ev(ptr noundef nonnull align 8 dereferenceable(8) %0)
  store ptr getelementptr inbounds ({ [8 x ptr] }, ptr @_ZTV19DFSProgramGenerator, i64 0, i32 0, i64 2), ptr %0, align 8
  %5 = getelementptr inbounds i8, ptr %0, i64 8
  store i32 %1, ptr %5, align 8
  %6 = getelementptr inbounds i8, ptr %0, i64 16
  store ptr %2, ptr %6, align 8
  %7 = getelementptr inbounds i8, ptr %0, i64 24
  store i64 %3, ptr %7, align 8
  %8 = getelementptr inbounds i8, ptr %0, i64 32
  tail call void @llvm.memset.p0.i64(ptr noundef nonnull align 8 dereferenceable(16) %8, i8 0, i64 16, i1 false)
  ret void
}